target datalayout = "e-m:e-p270:32:32-p271:32:32-p272:64:64-i64:64-i128:128-f80:128-n8:16:32:64-S128"
target triple = "x86_64-pc-linux-gnu"

%struct.IDAMemRec = type { ptr, double, ptr, ptr, i32, double, double, ptr, i32, i32, ptr, ptr, i32, i32, i32, ptr, ptr, i32, i32, double, double, ptr, i32, i32, i32, i32, ptr, ptr, i32, ptr, ptr, ptr, i32, double, i32, i32, double, ptr, ptr, ptr, i32, ptr, ptr, i32, i32, i32, double, ptr, ptr, ptr, [6 x ptr], [6 x double], [6 x double], [6 x double], [6 x double], [6 x double], ptr, ptr, ptr, ptr, ptr, ptr, ptr, ptr, ptr, ptr, ptr, ptr, ptr, ptr, ptr, ptr, ptr, [6 x ptr], ptr, ptr, ptr, ptr, [6 x ptr], ptr, ptr, ptr, ptr, ptr, ptr, ptr, ptr, ptr, ptr, ptr, ptr, ptr, ptr, ptr, ptr, [6 x ptr], ptr, ptr, ptr, ptr, ptr, double, ptr, ptr, i32, i32, i32, i32, i32, i32, i32, i32, double, double, double, i32, double, i32, i32, i32, i32, i32, double, double, double, double, double, double, double, double, double, double, double, double, double, double, double, double, double, i32, i32, i32, i32, i64, double, double, double, double, double, double, double, double, double, i64, i64, i64, i64, i64, i64, i64, i64, i64, i64, i64, i64, i64, i64, i64, i64, i64, i64, i64, i64, i64, i64, i64, i64, i64, i64, double, i32, i32, i32, i32, i32, i32, i32, i32, i32, i32, i32, i32, i32, ptr, i32, ptr, i32, ptr, i32, ptr, ptr, ptr, ptr, ptr, ptr, i32, i32, ptr, ptr, ptr, ptr, ptr, ptr, ptr, double, i32, i32, ptr, i32, ptr, ptr, double, double, double, ptr, ptr, ptr, double, double, i32, i32, i64, ptr, i32, ptr, [5 x double], ptr, ptr, i32, ptr, i32 }
%struct._generic_N_Vector = type { ptr, ptr, ptr }
%struct._N_VectorContent_SensWrapper = type { ptr, i32, i32 }

@.str = private unnamed_addr constant [119 x i8] c"generated/home/dtcxzyw/WorkSpace/Projects/compilers/llvm-opt-benchmark/bench/sundials/sundials/src/idas/idas_nls_stg.c\00", align 1
@.str.1 = private unnamed_addr constant [24 x i8] c"ida_mem = NULL illegal.\00", align 1
@__func__.idaNlsResidualSensStg = private unnamed_addr constant [22 x i8] c"idaNlsResidualSensStg\00", align 1

; Function Attrs: nounwind uwtable
define internal i32 @idaNlsResidualSensStg(ptr noundef %0, ptr noundef %1, ptr noundef %2) #0 {
  %4 = alloca i32, align 4
  %5 = alloca ptr, align 8
  %6 = alloca ptr, align 8
  %7 = alloca ptr, align 8
  %8 = alloca ptr, align 8
  %9 = alloca i32, align 4
  %10 = alloca i32, align 4
  store ptr %0, ptr %5, align 8, !tbaa !40
  store ptr %1, ptr %6, align 8, !tbaa !40
  store ptr %2, ptr %7, align 8, !tbaa !3
  call void @llvm.lifetime.start.p0(i64 8, ptr %8) #3
  call void @llvm.lifetime.start.p0(i64 4, ptr %9) #3
  %11 = load ptr, ptr %7, align 8, !tbaa !3
  %12 = icmp eq ptr %11, null
  br i1 %12, label %13, label %14

13:                                               ; preds = %3
  call void (ptr, i32, i32, ptr, ptr, ptr, ...) @IDAProcessError(ptr noundef null, i32 noundef -20, i32 noundef 301, ptr noundef @__func__.idaNlsResidualSensStg, ptr noundef @.str, ptr noundef @.str.1)
  store i32 -20, ptr %4, align 4
  store i32 1, ptr %10, align 4
  br label %103

14:                                               ; preds = %3
  %15 = load ptr, ptr %7, align 8, !tbaa !3
  store ptr %15, ptr %8, align 8, !tbaa !9
  %16 = load ptr, ptr %8, align 8, !tbaa !9
  %17 = getelementptr inbounds nuw %struct.IDAMemRec, ptr %16, i32 0, i32 24
  %18 = load i32, ptr %17, align 8, !tbaa !34
  %19 = load ptr, ptr %8, align 8, !tbaa !9
  %20 = getelementptr inbounds nuw %struct.IDAMemRec, ptr %19, i32 0, i32 83
  %21 = load ptr, ptr %20, align 8, !tbaa !39
  %22 = load ptr, ptr %5, align 8, !tbaa !40
  %23 = getelementptr inbounds nuw %struct._generic_N_Vector, ptr %22, i32 0, i32 0
  %24 = load ptr, ptr %23, align 8, !tbaa !41
  %25 = getelementptr inbounds nuw %struct._N_VectorContent_SensWrapper, ptr %24, i32 0, i32 0
  %26 = load ptr, ptr %25, align 8, !tbaa !44
  %27 = load ptr, ptr %8, align 8, !tbaa !9
  %28 = getelementptr inbounds nuw %struct.IDAMemRec, ptr %27, i32 0, i32 81
  %29 = load ptr, ptr %28, align 8, !tbaa !48
  %30 = call i32 @N_VLinearSumVectorArray(i32 noundef %18, double noundef 1.000000e+00, ptr noundef %21, double noundef 1.000000e+00, ptr noundef %26, ptr noundef %29)
  %31 = load ptr, ptr %8, align 8, !tbaa !9
  %32 = getelementptr inbounds nuw %struct.IDAMemRec, ptr %31, i32 0, i32 24
  %33 = load i32, ptr %32, align 8, !tbaa !34
  %34 = load ptr, ptr %8, align 8, !tbaa !9
  %35 = getelementptr inbounds nuw %struct.IDAMemRec, ptr %34, i32 0, i32 84
  %36 = load ptr, ptr %35, align 8, !tbaa !49
  %37 = load ptr, ptr %8, align 8, !tbaa !9
  %38 = getelementptr inbounds nuw %struct.IDAMemRec, ptr %37, i32 0, i32 129
  %39 = load double, ptr %38, align 8, !tbaa !50
  %40 = load ptr, ptr %5, align 8, !tbaa !40
  %41 = getelementptr inbounds nuw %struct._generic_N_Vector, ptr %40, i32 0, i32 0
  %42 = load ptr, ptr %41, align 8, !tbaa !41
  %43 = getelementptr inbounds nuw %struct._N_VectorContent_SensWrapper, ptr %42, i32 0, i32 0
  %44 = load ptr, ptr %43, align 8, !tbaa !44
  %45 = load ptr, ptr %8, align 8, !tbaa !9
  %46 = getelementptr inbounds nuw %struct.IDAMemRec, ptr %45, i32 0, i32 82
  %47 = load ptr, ptr %46, align 8, !tbaa !51
  %48 = call i32 @N_VLinearSumVectorArray(i32 noundef %33, double noundef 1.000000e+00, ptr noundef %36, double noundef %39, ptr noundef %44, ptr noundef %47)
  %49 = load ptr, ptr %8, align 8, !tbaa !9
  %50 = getelementptr inbounds nuw %struct.IDAMemRec, ptr %49, i32 0, i32 26
  %51 = load ptr, ptr %50, align 8, !tbaa !52
  %52 = load ptr, ptr %8, align 8, !tbaa !9
  %53 = getelementptr inbounds nuw %struct.IDAMemRec, ptr %52, i32 0, i32 24
  %54 = load i32, ptr %53, align 8, !tbaa !34
  %55 = load ptr, ptr %8, align 8, !tbaa !9
  %56 = getelementptr inbounds nuw %struct.IDAMemRec, ptr %55, i32 0, i32 127
  %57 = load double, ptr %56, align 8, !tbaa !53
  %58 = load ptr, ptr %8, align 8, !tbaa !9
  %59 = getelementptr inbounds nuw %struct.IDAMemRec, ptr %58, i32 0, i32 57
  %60 = load ptr, ptr %59, align 8, !tbaa !54
  %61 = load ptr, ptr %8, align 8, !tbaa !9
  %62 = getelementptr inbounds nuw %struct.IDAMemRec, ptr %61, i32 0, i32 58
  %63 = load ptr, ptr %62, align 8, !tbaa !55
  %64 = load ptr, ptr %8, align 8, !tbaa !9
  %65 = getelementptr inbounds nuw %struct.IDAMemRec, ptr %64, i32 0, i32 61
  %66 = load ptr, ptr %65, align 8, !tbaa !56
  %67 = load ptr, ptr %8, align 8, !tbaa !9
  %68 = getelementptr inbounds nuw %struct.IDAMemRec, ptr %67, i32 0, i32 81
  %69 = load ptr, ptr %68, align 8, !tbaa !48
  %70 = load ptr, ptr %8, align 8, !tbaa !9
  %71 = getelementptr inbounds nuw %struct.IDAMemRec, ptr %70, i32 0, i32 82
  %72 = load ptr, ptr %71, align 8, !tbaa !51
  %73 = load ptr, ptr %6, align 8, !tbaa !40
  %74 = getelementptr inbounds nuw %struct._generic_N_Vector, ptr %73, i32 0, i32 0
  %75 = load ptr, ptr %74, align 8, !tbaa !41
  %76 = getelementptr inbounds nuw %struct._N_VectorContent_SensWrapper, ptr %75, i32 0, i32 0
  %77 = load ptr, ptr %76, align 8, !tbaa !44
  %78 = load ptr, ptr %8, align 8, !tbaa !9
  %79 = getelementptr inbounds nuw %struct.IDAMemRec, ptr %78, i32 0, i32 27
  %80 = load ptr, ptr %79, align 8, !tbaa !57
  %81 = load ptr, ptr %8, align 8, !tbaa !9
  %82 = getelementptr inbounds nuw %struct.IDAMemRec, ptr %81, i32 0, i32 86
  %83 = load ptr, ptr %82, align 8, !tbaa !58
  %84 = load ptr, ptr %8, align 8, !tbaa !9
  %85 = getelementptr inbounds nuw %struct.IDAMemRec, ptr %84, i32 0, i32 87
  %86 = load ptr, ptr %85, align 8, !tbaa !59
  %87 = load ptr, ptr %8, align 8, !tbaa !9
  %88 = getelementptr inbounds nuw %struct.IDAMemRec, ptr %87, i32 0, i32 88
  %89 = load ptr, ptr %88, align 8, !tbaa !60
  %90 = call i32 %51(i32 noundef %54, double noundef %57, ptr noundef %60, ptr noundef %63, ptr noundef %66, ptr noundef %69, ptr noundef %72, ptr noundef %77, ptr noundef %80, ptr noundef %83, ptr noundef %86, ptr noundef %89)
  store i32 %90, ptr %9, align 4, !tbaa !32
  %91 = load ptr, ptr %8, align 8, !tbaa !9
  %92 = getelementptr inbounds nuw %struct.IDAMemRec, ptr %91, i32 0, i32 156
  %93 = load i64, ptr %92, align 8, !tbaa !61
  %94 = add nsw i64 %93, 1
  store i64 %94, ptr %92, align 8, !tbaa !61
  %95 = load i32, ptr %9, align 4, !tbaa !32
  %96 = icmp slt i32 %95, 0
  br i1 %96, label %97, label %98

97:                                               ; preds = %14
  store i32 -41, ptr %4, align 4
  store i32 1, ptr %10, align 4
  br label %103

98:                                               ; preds = %14
  %99 = load i32, ptr %9, align 4, !tbaa !32
  %100 = icmp sgt i32 %99, 0
  br i1 %100, label %101, label %102

101:                                              ; preds = %98
  store i32 11, ptr %4, align 4
  store i32 1, ptr %10, align 4
  br label %103

102:                                              ; preds = %98
  store i32 0, ptr %4, align 4
  store i32 1, ptr %10, align 4
  br label %103

103:                                              ; preds = %102, %101, %97, %13
  call void @llvm.lifetime.end.p0(i64 4, ptr %9) #3
  call void @llvm.lifetime.end.p0(i64 8, ptr %8) #3
  %104 = load i32, ptr %4, align 4
  ret i32 %104
}