; Function Attrs: nounwind uwtable
define internal range(i32 -41, 12) i32 @idaNlsResidualSensStg(ptr noundef readonly captures(none) %0, ptr noundef readonly captures(none) %1, ptr noundef captures(address_is_null) %2) #0 {
  %4 = icmp eq ptr %2, null
  br i1 %4, label %5, label %6

5:                                                ; preds = %3
  tail call void (ptr, i32, i32, ptr, ptr, ptr, ...) @IDAProcessError(ptr noundef null, i32 noundef -20, i32 noundef 301, ptr noundef nonnull @__func__.idaNlsResidualSensStg, ptr noundef nonnull @.str, ptr noundef nonnull @.str.1) #3
  br label %55

6:                                                ; preds = %3
  %7 = getelementptr inbounds nuw i8, ptr %2, i64 160
  %8 = load i32, ptr %7, align 8, !tbaa !29
  %9 = getelementptr inbounds nuw i8, ptr %2, i64 928
  %10 = load ptr, ptr %9, align 8, !tbaa !34
  %11 = load ptr, ptr %0, align 8, !tbaa !38
  %12 = load ptr, ptr %11, align 8, !tbaa !41
  %13 = getelementptr inbounds nuw i8, ptr %2, i64 912
  %14 = load ptr, ptr %13, align 8, !tbaa !43
  %15 = tail call i32 @N_VLinearSumVectorArray(i32 noundef %8, double noundef 1.000000e+00, ptr noundef %10, double noundef 1.000000e+00, ptr noundef %12, ptr noundef %14) #3
  %16 = load i32, ptr %7, align 8, !tbaa !29
  %17 = getelementptr inbounds nuw i8, ptr %2, i64 936
  %18 = load ptr, ptr %17, align 8, !tbaa !44
  %19 = getelementptr inbounds nuw i8, ptr %2, i64 1288
  %20 = load double, ptr %19, align 8, !tbaa !45
  %21 = load ptr, ptr %0, align 8, !tbaa !38
  %22 = load ptr, ptr %21, align 8, !tbaa !41
  %23 = getelementptr inbounds nuw i8, ptr %2, i64 920
  %24 = load ptr, ptr %23, align 8, !tbaa !46
  %25 = tail call i32 @N_VLinearSumVectorArray(i32 noundef %16, double noundef 1.000000e+00, ptr noundef %18, double noundef %20, ptr noundef %22, ptr noundef %24) #3
  %26 = getelementptr inbounds nuw i8, ptr %2, i64 168
  %27 = load ptr, ptr %26, align 8, !tbaa !47
  %28 = load i32, ptr %7, align 8, !tbaa !29
  %29 = getelementptr inbounds nuw i8, ptr %2, i64 1272
  %30 = load double, ptr %29, align 8, !tbaa !48
  %31 = getelementptr inbounds nuw i8, ptr %2, i64 640
  %32 = load ptr, ptr %31, align 8, !tbaa !49
  %33 = getelementptr inbounds nuw i8, ptr %2, i64 648
  %34 = load ptr, ptr %33, align 8, !tbaa !50
  %35 = getelementptr inbounds nuw i8, ptr %2, i64 672
  %36 = load ptr, ptr %35, align 8, !tbaa !51
  %37 = load ptr, ptr %13, align 8, !tbaa !43
  %38 = load ptr, ptr %23, align 8, !tbaa !46
  %39 = load ptr, ptr %1, align 8, !tbaa !38
  %40 = load ptr, ptr %39, align 8, !tbaa !41
  %41 = getelementptr inbounds nuw i8, ptr %2, i64 176
  %42 = load ptr, ptr %41, align 8, !tbaa !52
  %43 = getelementptr inbounds nuw i8, ptr %2, i64 952
  %44 = load ptr, ptr %43, align 8, !tbaa !53
  %45 = getelementptr inbounds nuw i8, ptr %2, i64 960
  %46 = load ptr, ptr %45, align 8, !tbaa !54
  %47 = getelementptr inbounds nuw i8, ptr %2, i64 968
  %48 = load ptr, ptr %47, align 8, !tbaa !55
  %49 = tail call i32 %27(i32 noundef %28, double noundef %30, ptr noundef %32, ptr noundef %34, ptr noundef %36, ptr noundef %37, ptr noundef %38, ptr noundef %40, ptr noundef %42, ptr noundef %44, ptr noundef %46, ptr noundef %48) #3
  %50 = getelementptr inbounds nuw i8, ptr %2, i64 1488
  %51 = load i64, ptr %50, align 8, !tbaa !56
  %52 = add nsw i64 %51, 1
  store i64 %52, ptr %50, align 8, !tbaa !56
  %53 = icmp slt i32 %49, 0
  br i1 %53, label %55, label %54

54:                                               ; preds = %6
  %.not = icmp eq i32 %49, 0
  %. = select i1 %.not, i32 0, i32 11
  br label %55

55:                                               ; preds = %54, %6, %5
  %.0 = phi i32 [ -20, %5 ], [ -41, %6 ], [ %., %54 ]
  ret i32 %.0
}